; Function Attrs: mustprogress uwtable
define void @_ZN2cv3hal7sqrt32fEPKfPfi(ptr noundef readonly captures(none) %0, ptr noundef writeonly captures(none) %1, i32 noundef %2) local_unnamed_addr #0 personality ptr @__gxx_personality_v0 {
  %4 = alloca %"class.cv::utils::trace::details::Region", align 8
  %5 = alloca %"class.cv::utils::trace::details::Region", align 8
  call void @llvm.lifetime.start.p0(i64 16, ptr nonnull %5) #12
  call void @_ZN2cv5utils5trace7details6RegionC1ERKNS3_21LocationStaticStorageE(ptr noundef nonnull align 8 dereferenceable(12) %5, ptr noundef nonnull align 8 dereferenceable(32) @_ZZN2cv3hal7sqrt32fEPKfPfiE25__cv_trace_location_fn111)
  call void @llvm.lifetime.start.p0(i64 16, ptr nonnull %4) #12
  invoke void @_ZN2cv5utils5trace7details6RegionC1ERKNS3_21LocationStaticStorageE(ptr noundef nonnull align 8 dereferenceable(12) %4, ptr noundef nonnull align 8 dereferenceable(32) @_ZZN2cv3hal12cpu_baseline7sqrt32fEPKfPfiE25__cv_trace_location_fn395)
          to label %.noexc unwind label %23

.noexc:                                           ; preds = %3
  %6 = icmp sgt i32 %2, 0
  br i1 %6, label %.lr.ph.preheader.i, label %._crit_edge.i

.lr.ph.preheader.i:                               ; preds = %.noexc
  %wide.trip.count.i = zext nneg i32 %2 to i64
  br label %.lr.ph.i

.lr.ph.i:                                         ; preds = %.lr.ph.i, %.lr.ph.preheader.i
  %indvars.iv.i = phi i64 [ 0, %.lr.ph.preheader.i ], [ %indvars.iv.next.i, %.lr.ph.i ]
  %7 = getelementptr inbounds nuw float, ptr %0, i64 %indvars.iv.i
  %8 = load float, ptr %7, align 4, !tbaa !3
  %9 = call noundef float @sqrtf(float noundef %8) #12, !tbaa !26
  %10 = getelementptr inbounds nuw float, ptr %1, i64 %indvars.iv.i
  store float %9, ptr %10, align 4, !tbaa !3
  %indvars.iv.next.i = add nuw nsw i64 %indvars.iv.i, 1
  %exitcond.not.i = icmp eq i64 %indvars.iv.next.i, %wide.trip.count.i
  br i1 %exitcond.not.i, label %._crit_edge.i, label %.lr.ph.i, !llvm.loop !29

._crit_edge.i:                                    ; preds = %.lr.ph.i, %.noexc
  %11 = getelementptr inbounds nuw i8, ptr %4, i64 8
  %12 = load i32, ptr %11, align 8, !tbaa !9
  %.not.i.i = icmp eq i32 %12, 0
  br i1 %.not.i.i, label %.critedge, label %13

13:                                               ; preds = %._crit_edge.i
  invoke void @_ZN2cv5utils5trace7details6Region7destroyEv(ptr noundef nonnull align 8 dereferenceable(12) %4)
          to label %.critedge unwind label %14

14:                                               ; preds = %13
  %15 = landingpad { ptr, i32 }
          catch ptr null
  %16 = extractvalue { ptr, i32 } %15, 0
  call void @__clang_call_terminate(ptr %16) #13
  unreachable

.critedge:                                        ; preds = %13, %._crit_edge.i
  call void @llvm.lifetime.end.p0(i64 16, ptr nonnull %4) #12
  %17 = getelementptr inbounds nuw i8, ptr %5, i64 8
  %18 = load i32, ptr %17, align 8, !tbaa !9
  %.not.i = icmp eq i32 %18, 0
  br i1 %.not.i, label %_ZN2cv5utils5trace7details6RegionD2Ev.exit, label %19

19:                                               ; preds = %.critedge
  invoke void @_ZN2cv5utils5trace7details6Region7destroyEv(ptr noundef nonnull align 8 dereferenceable(12) %5)
          to label %_ZN2cv5utils5trace7details6RegionD2Ev.exit unwind label %20

20:                                               ; preds = %19
  %21 = landingpad { ptr, i32 }
          catch ptr null
  %22 = extractvalue { ptr, i32 } %21, 0
  call void @__clang_call_terminate(ptr %22) #13
  unreachable

_ZN2cv5utils5trace7details6RegionD2Ev.exit:       ; preds = %.critedge, %19
  call void @llvm.lifetime.end.p0(i64 16, ptr nonnull %5) #12
  ret void

23:                                               ; preds = %3
  %24 = landingpad { ptr, i32 }
          cleanup
  call void @_ZN2cv5utils5trace7details6RegionD2Ev(ptr noundef nonnull align 8 dereferenceable(12) %5) #12
  call void @llvm.lifetime.end.p0(i64 16, ptr nonnull %5) #12
  resume { ptr, i32 } %24
}